(dp1
S'pt_login_sig'
p2
S'q*cb47dXCFti7sR255x5Uab06jmKSPirohZBCUPwDsx9SE*nT7jACsU*ZXcQCZBo'
p3
sS'ptisp'
p4
S'ctc'
p5
sS'pt4_token'
p6
S'JUy8dM9k67aB64rLD7R66DYmaEl8JdHdnx1JyNVEUKk_'
p7
sS'skey'
p8
S'@8QV9kArJb'
p9
sS'RK'
p10
S'qLU7YdK3S2'
p11
sS'ptui_identifier'
p12
S'000D8C623685202A55ED06F7595258EAABB78432568F7C6E11FD9902'
p13
sS'u_659030105'
p14
S'@8QV9kArJb:1469006612:1469006612:e28094526564756e64616e6379e28094:0'
p15
sS'qrsig'
p16
S'FbBrAa1kkgjf7EjhYvfXOBBlDW9UfE-5CS719s5T7nJZpEe3UZe8fhNuDVSCLW9m'
p17
sS'pt_serverip'
p18
S'ccab0af1716400de'
p19
sS'uin'
p20
S'o0659030105'
p21
sS'p_uin'
p22
S'o0659030105'
p23
sS'supertoken'
p24
S'2191144748'
p25
sS'pt2gguin'
p26
S'o0659030105'
p27
sS'ptwebqq'
p28
S'a3b3faa40c2265d801a291dc1af39c1ba63077c2f390d63ac6790480b5b400d3'
p29
sS'pt_user_id'
p30
S'6163350395460193103'
p31
sS'ETK'
p32
S''
sS'pt_clientip'
p33
S'54780a3172106a32'
p34
sS'superuin'
p35
S'o0659030105'
p36
sS'p_skey'
p37
S'ezlXS*LDhZVK73teByOCszObcC2-2qCBr9OuT3pQ2Lk_'
p38
sS'superkey'
p39
S'tBeSXmGBJ0Sa*BClPwp9PRZWcoyvu1Te1aqGSKha9c8_'
p40
sS'ptnick_659030105'
p41
S'e28094526564756e64616e6379e28094'
p42
s.