(dp1
S'pt_login_sig'
p2
S'86LzSd2yMDM*1iKAYqe9VGTbPaLC7EiOPldyL6hZAAGrOF4Bng1iJckPWmhW6HaB'
p3
sS'ptisp'
p4
S'ctc'
p5
sS'pt4_token'
p6
S'K3rzUOHW9yGBK5BRmXAZ1jgonVScwgHy2pKYICo1qtw_'
p7
sS'skey'
p8
S'@qKEnFRAnL'
p9
sS'RK'
p10
S'qLU7YdK3S2'
p11
sS'ptui_identifier'
p12
S'000D8A1E7FE7DAC971FE60B93CF304F411BD4B3F2001FB0C56F25768'
p13
sS'u_659030105'
p14
S'@qKEnFRAnL:1469234748:1469234748:e28094526564756e64616e6379e28094:0'
p15
sS'qrsig'
p16
S'XxhKgjVsssuTV8863gWgcfLZjynRXBypdogUZggsfzEkP3DwcSaQWgGYMoSiFZg0'
p17
sS'pt_serverip'
p18
S'ad3a0a820aa15c1d'
p19
sS'uin'
p20
S'o0659030105'
p21
sS'p_uin'
p22
S'o0659030105'
p23
sS'supertoken'
p24
S'74410402'
p25
sS'pt2gguin'
p26
S'o0659030105'
p27
sS'ptwebqq'
p28
S'94d4bf583ba5154a613ec7d05b782761db15283ff1b6e681f52056c6e8baa624'
p29
sS'pt_user_id'
p30
S'8100029784597461916'
p31
sS'ETK'
p32
S''
sS'pt_clientip'
p33
S'766c0a3172102f99'
p34
sS'superuin'
p35
S'o0659030105'
p36
sS'p_skey'
p37
S'HLgyIXdj7UAVwKXxWdYaMCG6sOdDNKr0LUGFIMIhUoI_'
p38
sS'superkey'
p39
S'3WVU8uHLlbiGDxKUCmDm9GJTxDt5Co0TItljuHXM87U_'
p40
sS'ptnick_659030105'
p41
S'e28094526564756e64616e6379e28094'
p42
s.