(dp1
S'pt_login_sig'
p2
S'YeHp60mQ7NZObwLuIn-ll90RaDhf8cH8O7QuAIRCAaGonWun9*-Cu6DlDcW198y1'
p3
sS'ptisp'
p4
S'ctc'
p5
sS'pt4_token'
p6
S'9UIjES*HFCEdMbrMoHI0KosHZ9eDZkv3t34dodaSdDU_'
p7
sS'skey'
p8
S'@QFPEUdLfp'
p9
sS'RK'
p10
S'qLU7YdK3S2'
p11
sS'ptui_identifier'
p12
S'000D9F2BFB9D330E0204FF82CF157311EAB656D06680A25E9F81C2C6'
p13
sS'u_659030105'
p14
S'@QFPEUdLfp:1468482812:1468482812:e28094526564756e64616e6379e28094:0'
p15
sS'qrsig'
p16
S'Hk8YpAoMk1gCayTk*Vuianieiuvzkiq6RuzckQNlgOv8l4ArsRwnISKn6hLEgZGc'
p17
sS'pt_serverip'
p18
S'43c20a82584bbd44'
p19
sS'uin'
p20
S'o0659030105'
p21
sS'p_uin'
p22
S'o0659030105'
p23
sS'supertoken'
p24
S'214147756'
p25
sS'pt2gguin'
p26
S'o0659030105'
p27
sS'ptwebqq'
p28
S'ea6e780184245742429186194e5bbc8b0a7f51cada840f244c64372f6f137ded'
p29
sS'pt_user_id'
p30
S'9829983098719904446'
p31
sS'ETK'
p32
S''
sS'pt_clientip'
p33
S'f5a80adb9b4ce6d2'
p34
sS'superuin'
p35
S'o0659030105'
p36
sS'p_skey'
p37
S'3v0mHR9GTL0dUILIYYGsUlSm06Vr--1tAYwDD*pQZi0_'
p38
sS'superkey'
p39
S'fjwGHDCWsDbbrFpGmsSpFgW-VtQCIt-miRN9*ngEV28_'
p40
sS'ptnick_659030105'
p41
S'e28094526564756e64616e6379e28094'
p42
s.