(dp1
S'pt_login_sig'
p2
S'KuXqWDBJ7Jbe9NLfRtrNHeCtFsANGuFd6PoF94QFWKrFY*DdgktFSg8mA6KMcRZi'
p3
sS'ptisp'
p4
S'ctc'
p5
sS'pt4_token'
p6
S'hBFdZgaZvMWx9cBjkNpQh980DTbE6qjt*e8rNK8KOHg_'
p7
sS'skey'
p8
S'@P5i1PKmyU'
p9
sS'RK'
p10
S'FDVzMdKHQW'
p11
sS'ptui_identifier'
p12
S'000DA3CB8F22ABCA1F70DBE06B5CEB7873E31B4A5430D5A404C8A858'
p13
sS'u_659030105'
p14
S'@P5i1PKmyU:1468764283:1468764283:e28094526564756e64616e6379e28094:0'
p15
sS'qrsig'
p16
S'7Lv3QClswJhUB05Au5kag4sWlCkzVp7dZ6*xn1aPOObYWH8zZ-R5nqENsxUWYLbk'
p17
sS'pt_serverip'
p18
S'173e0a8f996660ca'
p19
sS'uin'
p20
S'o0659030105'
p21
sS'p_uin'
p22
S'o0659030105'
p23
sS'supertoken'
p24
S'352873346'
p25
sS'pt2gguin'
p26
S'o0659030105'
p27
sS'ptwebqq'
p28
S'87be63e5eff58eb020a52e78faa3ccd865ffc3346c56d8d8f8d6ca0ef4ae147e'
p29
sS'pt_user_id'
p30
S'2527556765081132272'
p31
sS'ETK'
p32
S''
sS'pt_clientip'
p33
S'870c0a3171e8e40a'
p34
sS'superuin'
p35
S'o0659030105'
p36
sS'p_skey'
p37
S'u8l2fjNfnKCi2O6nndluOo29Rx5h9daMXiVZQytKRuw_'
p38
sS'superkey'
p39
S'qJrWSmm9z*27qFCXXddtE*mtGpmP7zfIz5UtfeMsGmk_'
p40
sS'ptnick_659030105'
p41
S'e28094526564756e64616e6379e28094'
p42
s.