(dp1
S'pt_login_sig'
p2
S'VVCXb-KRjseCjXNEU-I*VEtI4ioZRAsOq*3jFWRGQ7MUnz5XObwZHiY7i84eExN7'
p3
sS'ptisp'
p4
S'ctc'
p5
sS'pt4_token'
p6
S'71idVBdYY-zpE-ZY-D6nXxrgRBCBRhgphw25-yWvbWc_'
p7
sS'skey'
p8
S'@5A8QzZbAm'
p9
sS'RK'
p10
S'qLU7YdK3S2'
p11
sS'ptui_identifier'
p12
S'000D496372DD6ACEB1398059F7F93A9024DFF3532B7957B2000767A2'
p13
sS'u_659030105'
p14
S'@5A8QzZbAm:1468371710:1468371710:e28094526564756e64616e6379e28094:0'
p15
sS'qrsig'
p16
S'-r-zrHZ5vZ05Ct4xjC*Yd7NvPmPuNGCsLsTzTS1ceGkqJlhI6nE36Es4B7Lt5U40'
p17
sS'pt_serverip'
p18
S'2d910a8f82604cad'
p19
sS'uin'
p20
S'o0659030105'
p21
sS'p_uin'
p22
S'o0659030105'
p23
sS'supertoken'
p24
S'4223402634'
p25
sS'pt2gguin'
p26
S'o0659030105'
p27
sS'ptwebqq'
p28
S'69be144223e8eb24ac42e1853922e1c07bc2d8535f160eaf85e81dc79a63b662'
p29
sS'pt_user_id'
p30
S'10895751746832161876'
p31
sS'ETK'
p32
S''
sS'pt_clientip'
p33
S'e99a0af0855a653a'
p34
sS'superuin'
p35
S'o0659030105'
p36
sS'p_skey'
p37
S'mTEUYntEvR-wpWxhGzYtpi-fJ5ISGX0AOF*Mx3WwKvg_'
p38
sS'superkey'
p39
S'3QhAztryFk0BLvIP6fjK167YGz6YZq5oxeVakNz8N0c_'
p40
sS'ptnick_659030105'
p41
S'e28094526564756e64616e6379e28094'
p42
s.