(dp1
S'pt_login_sig'
p2
S'd*nafT-tPrXBZTzD7Quw6BVZKD4C*Z8xEsrzml2vYfd3npZEmEDXqWjrjRxI*8BU'
p3
sS'ptisp'
p4
S'ctc'
p5
sS'pt4_token'
p6
S'4v4NeI4b*WC25QozCmO35ZVXkIJFuf0u2maudFQ-pC4_'
p7
sS'skey'
p8
S'@8QV9kArJb'
p9
sS'RK'
p10
S'qLU7YdK3S2'
p11
sS'ptui_identifier'
p12
S'000D54C525AA986204D4BBBBC374790100234D770012658255A7DDFC82'
p13
sS'u_659030105'
p14
S'@8QV9kArJb:1468991189:1468991189:e28094526564756e64616e6379e28094:0'
p15
sS'qrsig'
p16
S'4rSfSRPM9*MHrVnyNpNJBPWuko*Nt98TOoNhoPuY9PQHy5Ph7Wv0nzzAZNBAEQdQ'
p17
sS'pt_serverip'
p18
S'f3e70aa693d9e484'
p19
sS'uin'
p20
S'o0659030105'
p21
sS'p_uin'
p22
S'o0659030105'
p23
sS'supertoken'
p24
S'3004396893'
p25
sS'pt2gguin'
p26
S'o0659030105'
p27
sS'ptwebqq'
p28
S'7ba9f550871b9b31255931b92d4b8162232de44a718e7f6153cfb6324fc91ea1'
p29
sS'pt_user_id'
p30
S'17504639294049883161'
p31
sS'ETK'
p32
S''
sS'pt_clientip'
p33
S'0fba0adb9b7952ba'
p34
sS'superuin'
p35
S'o0659030105'
p36
sS'p_skey'
p37
S'UC6Mqn44sx9KOjG2xZyex3ukqYnWycIQZireAW6-mXo_'
p38
sS'superkey'
p39
S'L55oQM7VeVLTXIwhUh6VQMAgwPbZ-0GAUrDOmAMmunw_'
p40
sS'ptnick_659030105'
p41
S'e28094526564756e64616e6379e28094'
p42
s.