(dp1
S'pt_login_sig'
p2
S'MsxyWJabyrPXFwj8unIJwrGhfLBDtM8v1Y0W8ZXej8hc9WQb-CDpJISEWKFkuBMM'
p3
sS'ptisp'
p4
S'ctc'
p5
sS'pt4_token'
p6
S'wlpsP8LRuxUzISaSMrbLhp6HOtvm4nGeIT-OA03OcGU_'
p7
sS'skey'
p8
S'@JKRHb8nnh'
p9
sS'RK'
p10
S'qLU7YdK3S2'
p11
sS'ptui_identifier'
p12
S'000D4B56B55B34C3EA11736058C1330A7484B23ECDD843F53193CB8F'
p13
sS'u_659030105'
p14
S'@JKRHb8nnh:1469677207:1469677207:e28094526564756e64616e6379e28094:0'
p15
sS'qrsig'
p16
S'MGbzOCr4hOOZI*Ftwkm9I4uFC1k947zcPVtiNYa3thl-RA9OzrfvqsDj1ZaCLoJh'
p17
sS'pt_serverip'
p18
S'42ee0aa687cc929c'
p19
sS'uin'
p20
S'o0659030105'
p21
sS'p_uin'
p22
S'o0659030105'
p23
sS'supertoken'
p24
S'2277661081'
p25
sS'pt2gguin'
p26
S'o0659030105'
p27
sS'ptwebqq'
p28
S'40375178ddfd10a57f5d58dc22cd0322ad45933d0f80af1c7cf4cad069c353ce'
p29
sS'pt_user_id'
p30
S'2163590274958410094'
p31
sS'ETK'
p32
S''
sS'pt_clientip'
p33
S'df090a3171e835cd'
p34
sS'superuin'
p35
S'o0659030105'
p36
sS'p_skey'
p37
S'7kHyI0srVfhmkwClB4eBcEOxLfufPCOWNfFY8PUA*9I_'
p38
sS'superkey'
p39
S'DF1WN9mJstu0q4a*29CwD1p3eXc4h5YqJeEDh3RLKEU_'
p40
sS'ptnick_659030105'
p41
S'e28094526564756e64616e6379e28094'
p42
s.