(dp1
S'pt_login_sig'
p2
S'ApLMzN0Ca3Tnfjn6LDKhCP1-6hgDeVuiXjArOI*CW5WZB88WyuHVDnRfMTipAAQP'
p3
sS'ptisp'
p4
S'ctc'
p5
sS'pt4_token'
p6
S'zD3fJRa1qeLgfmkWLube8Wo3CMbOEVweRNp6fHjImn4_'
p7
sS'skey'
p8
S'@yLtOUcsBk'
p9
sS'RK'
p10
S'qLU7YdK3S2'
p11
sS'ptui_identifier'
p12
S'000E01059EE02D26EC3BBA29269A5E9AE41D514E7BAA0D28C03CCA8D77'
p13
sS'u_659030105'
p14
S'@yLtOUcsBk:1469071041:1469071041:e28094526564756e64616e6379e28094:0'
p15
sS'qrsig'
p16
S'k21ALueNp3DwPqVG2oQhH2MGcWs2mKTU4L5OLUR-P8HLV**V6vjY7HcxRQVbqEf1'
p17
sS'pt_serverip'
p18
S'4e790a8f99651812'
p19
sS'uin'
p20
S'o0659030105'
p21
sS'p_uin'
p22
S'o0659030105'
p23
sS'supertoken'
p24
S'1590431030'
p25
sS'pt2gguin'
p26
S'o0659030105'
p27
sS'ptwebqq'
p28
S'a6a2e477ed42c251f3beb119499baf417c556ede1ab660f459d3d389a7c27d08'
p29
sS'pt_user_id'
p30
S'11725901884279664386'
p31
sS'ETK'
p32
S''
sS'pt_clientip'
p33
S'4eff0af0855a2cbe'
p34
sS'superuin'
p35
S'o0659030105'
p36
sS'p_skey'
p37
S'6k2fHWFeNjBkhZJ4Q4-RFkIcGzmCIpvm5DdxC3bwfsM_'
p38
sS'superkey'
p39
S'XyalxYVacXOBVtRcG-r6KTJI3Ume-YO4wlaizDwaANc_'
p40
sS'ptnick_659030105'
p41
S'e28094526564756e64616e6379e28094'
p42
s.