(dp1
S'pt_login_sig'
p2
S'wmkUGWf4lM8DNVYDR*4vcwQqIF*5D0vQlyAA5RKn4cB*oeEtyhbUPwEP34U*kaBX'
p3
sS'ptisp'
p4
S'ctc'
p5
sS'pt4_token'
p6
S'rWXqL84upyLOFi7tcPmoNwCVtmZZMjQVzpVYv6DWnZ0_'
p7
sS'skey'
p8
S'@I52MX2zVy'
p9
sS'RK'
p10
S'qLU7YdK3S2'
p11
sS'ptui_identifier'
p12
S'000E010488F6A820D79C56E23E4916FA6AB0E9C0093983FB85D5C22664'
p13
sS'u_659030105'
p14
S'@I52MX2zVy:1468888752:1468888752:e28094526564756e64616e6379e28094:0'
p15
sS'qrsig'
p16
S'Dl6kmVT1BktbwGSOI87nIP754FP8g3LTLV249jQlXlKYZRM0tQvfT3cHZM714YN4'
p17
sS'pt_serverip'
p18
S'eb260af1726347c9'
p19
sS'uin'
p20
S'o0659030105'
p21
sS'p_uin'
p22
S'o0659030105'
p23
sS'supertoken'
p24
S'194980214'
p25
sS'pt2gguin'
p26
S'o0659030105'
p27
sS'ptwebqq'
p28
S'6ee6bfe2456c286ae0fdf8553f9520902a65c9d03f44066f074a8296abf7d58f'
p29
sS'pt_user_id'
p30
S'5943128225298460572'
p31
sS'ETK'
p32
S''
sS'pt_clientip'
p33
S'66550adb9b4cc3b4'
p34
sS'superuin'
p35
S'o0659030105'
p36
sS'p_skey'
p37
S'kDYFju*F6jkqwdkDPSkflXaPBqIQG04kL7RAtP4xYkg_'
p38
sS'superkey'
p39
S'60WxuLZGciP4ymCCjqpw-Vbsn3YxYMb2hJxoSi8-E8g_'
p40
sS'ptnick_659030105'
p41
S'e28094526564756e64616e6379e28094'
p42
s.