(dp1
S'pt_login_sig'
p2
S'q5pKQpbvmbQ*MNwmi6rGcYf2LYfF-n44m8M5NEJwtG-Fx1fWsZgzedMJ06tHwBqA'
p3
sS'ptisp'
p4
S'ctc'
p5
sS'pt4_token'
p6
S'tTxIZEIUu6zxfCrVVYAQYNTtkWMQaDf9QfmBzzzT02g_'
p7
sS'skey'
p8
S'@oKIqyLxlB'
p9
sS'RK'
p10
S'6DUzI9K2Q2'
p11
sS'ptui_identifier'
p12
S'000DFAC61DCBE16B9DF3E46C92A102C6135015240195DD3B90718BF0'
p13
sS'u_659030105'
p14
S'@oKIqyLxlB:1468424324:1468424324:e28094526564756e64616e6379e28094:0'
p15
sS'qrsig'
p16
S'dw2f73sBlsf--lqFfspdfhd1AwZzJyhCtPsLMhDUZ5LGvDmxTxd*CHuSsrqH7NqT'
p17
sS'pt_serverip'
p18
S'67280a8f8261ecf9'
p19
sS'uin'
p20
S'o0659030105'
p21
sS'p_uin'
p22
S'o0659030105'
p23
sS'supertoken'
p24
S'2182235145'
p25
sS'pt2gguin'
p26
S'o0659030105'
p27
sS'ptwebqq'
p28
S'9fc78916e51fd8d893e510eb15edb0a91591071abde2df4e0ef9a4cad2475ca6'
p29
sS'pt_user_id'
p30
S'17536515092671006939'
p31
sS'ETK'
p32
S''
sS'pt_clientip'
p33
S'44320af08a1605cb'
p34
sS'superuin'
p35
S'o0659030105'
p36
sS'p_skey'
p37
S'BHGlsa9Ca95Tl85GhVyX4IdL-K4jN3ZrtELEnlYKXsw_'
p38
sS'superkey'
p39
S'K0qr46qXlYdOZF57SsyNOCS93JVpvpulx9gTJyccT2E_'
p40
sS'ptnick_659030105'
p41
S'e28094526564756e64616e6379e28094'
p42
s.