(dp1
S'pt_login_sig'
p2
S'rMj5onr1CVIMBp8Pf6hy-dw19tddpaNXTGdKzhMmCAo0t7e8m1CmAHOQBXia87Vk'
p3
sS'ptisp'
p4
S'ctc'
p5
sS'pt4_token'
p6
S'qYCsHA*1AHy0yhEPJFBA6CVTR2t*YJDhMsBuAawwQy4_'
p7
sS'skey'
p8
S'@QFPEUdLfp'
p9
sS'RK'
p10
S'NDV7MdKnQ2'
p11
sS'ptui_identifier'
p12
S'000D4A788F58DB1F9AF012F067FB9B012406DAF541BDC384DA50AE3A3A'
p13
sS'u_659030105'
p14
S'@QFPEUdLfp:1468507664:1468507664:e28094526564756e64616e6379e28094:0'
p15
sS'qrsig'
p16
S'd9FKdUYpBzaA4EsNLhFo9NqUgyRRKJ9hsrdY2tYRHJKzbccMuBDqvxu8d*jZlPnT'
p17
sS'pt_serverip'
p18
S'a0090af17164ad1d'
p19
sS'uin'
p20
S'o0659030105'
p21
sS'p_uin'
p22
S'o0659030105'
p23
sS'supertoken'
p24
S'3185637612'
p25
sS'pt2gguin'
p26
S'o0659030105'
p27
sS'ptwebqq'
p28
S'58857d6c27e6d839849818ae08ad39c456b56f73ad2525a2cd93784c1317c472'
p29
sS'pt_user_id'
p30
S'2058926596351277022'
p31
sS'ETK'
p32
S''
sS'pt_clientip'
p33
S'f7cb0a3171e85b1d'
p34
sS'superuin'
p35
S'o0659030105'
p36
sS'p_skey'
p37
S'ZkH5pTR0MnYglxk19c9HotnAXN8F2m5EwLb81WPvkto_'
p38
sS'superkey'
p39
S'tydZCVH7XVjdccQc9jhSYSlYbJ*kBnqM4m8gCOFeRnY_'
p40
sS'ptnick_659030105'
p41
S'e28094526564756e64616e6379e28094'
p42
s.