(dp1
S'pt_login_sig'
p2
S'u8BoxIPGwGbZ6lXfEOZN*bAU-bJz2I4-UsunTA1P3KIpu05POeAfCCTjPBQARmvv'
p3
sS'ptisp'
p4
S'ctc'
p5
sS'pt4_token'
p6
S'CU3iToKa9gWgKrG4YZsRpyukZnG1ElWGooGVLY9SblQ_'
p7
sS'skey'
p8
S'@qcvDKBq1r'
p9
sS'RK'
p10
S'KDUzd9KnQ2'
p11
sS'ptui_identifier'
p12
S'000DD6F93E8F261FC13E84D07707C201075305A0AD4BDE77DD9594E941'
p13
sS'u_659030105'
p14
S'@qcvDKBq1r:1469979411:1469979411:e28094526564756e64616e6379e28094:0'
p15
sS'qrsig'
p16
S'Ic0glVocmJ6marAbKUP0UG5jTNrufBI2qDHm3PiTplsmKa26zhGK3K57g9d0urUg'
p17
sS'pt_serverip'
p18
S'e2850aa687cc5edf'
p19
sS'uin'
p20
S'o0659030105'
p21
sS'p_uin'
p22
S'o0659030105'
p23
sS'supertoken'
p24
S'4078291479'
p25
sS'pt2gguin'
p26
S'o0659030105'
p27
sS'ptwebqq'
p28
S'd0557ea2cd78cd4e38443750ba347ae3e9b64834a126096312d29940c1b48a48'
p29
sS'pt_user_id'
p30
S'15794168864143856050'
p31
sS'ETK'
p32
S''
sS'pt_clientip'
p33
S'c9b70ad119e55b06'
p34
sS'superuin'
p35
S'o0659030105'
p36
sS'p_skey'
p37
S'S1p1f2HLGYCeSgxzHIDZCEJXDlKgIqkm-lpVTG5hgdQ_'
p38
sS'superkey'
p39
S'XnEpUHupz9aMbH5rLRpSrm*MQQdIjSE1GtngHQWrx7o_'
p40
sS'ptnick_659030105'
p41
S'e28094526564756e64616e6379e28094'
p42
s.