(dp1
S'pt_login_sig'
p2
S'tUt8IROe8*cCU60wyptvK6eEB8Oewfe9B2vQcglJjI0AsOCpY6KGKH2KbItYSGLx'
p3
sS'ptisp'
p4
S'ctc'
p5
sS'pt4_token'
p6
S'd0utwUraaHBDH2pj0vGC0NJpjvL-wmrMnvyDeCNel8w_'
p7
sS'skey'
p8
S'@bMjigiizi'
p9
sS'RK'
p10
S'CCV7M/KXTW'
p11
sS'ptui_identifier'
p12
S'000D4E2E3BA4D953EA5A5F08DC12AECC068AB747A700B04060F00ABA'
p13
sS'u_659030105'
p14
S'@bMjigiizi:1470225143:1470225143:e28094526564756e64616e6379e28094:0'
p15
sS'qrsig'
p16
S'l5CR7l2Wba669vYUk0qEz1sVCUWp*lh0e2PCdLRnS3NMasMSXUqFXK1qEwWEHzD8'
p17
sS'pt_serverip'
p18
S'c6910af17263dfc6'
p19
sS'uin'
p20
S'o0659030105'
p21
sS'p_uin'
p22
S'o0659030105'
p23
sS'supertoken'
p24
S'349059504'
p25
sS'pt2gguin'
p26
S'o0659030105'
p27
sS'ptwebqq'
p28
S'8ff02cab3123c3b22b0ee8c6b95b8fee8f21f282ad4eef2a8ce60a0b8a898cd3'
p29
sS'pt_user_id'
p30
S'12095988869974969166'
p31
sS'ETK'
p32
S''
sS'pt_clientip'
p33
S'81450af0855a8873'
p34
sS'superuin'
p35
S'o0659030105'
p36
sS'p_skey'
p37
S'knm10E*GDQmOMQ2yPvIWHjdqKEJRrYtgacZ2iwIzklw_'
p38
sS'superkey'
p39
S'j1hAVp*wytsGsQo4ELxXiue4kI2TZWVdEstJnQqdnPs_'
p40
sS'ptnick_659030105'
p41
S'e28094526564756e64616e6379e28094'
p42
s.