(dp1
S'pt_login_sig'
p2
S'lGR46AwO55kve6pE6lC54D7qrovQvOMJ*Q-JVv8WrE54omNYZCw*Laep1LfiKd6Q'
p3
sS'uin'
p4
S'o0659030105'
p5
sS'pt2gguin'
p6
S'o0659030105'
p7
sS'ETK'
p8
S''
sS'pt_guid_sig'
p9
S'58d5e8812e9af9a11ff7eb437fa281d8cdcf634d0ec86abc76e7117038327f48'
p10
sS'ptnick_659030105'
p11
S'e28094526564756e64616e6379e28094e29da4'
p12
sS'skey'
p13
S'@FOXV7xpAE'
p14
sS'qrsig'
p15
S'rLOYixsEQ*QsHvSiI6XS3fHwEE4Dihk*PqjLXllOrSWCSaWjspp*XV9U8C-XhFud'
p16
sS'pt_user_id'
p17
S'17689605147728113476'
p18
sS'superkey'
p19
S'3Uo*5GGghVRqz-EUviEmHRojPA6HrG6fFZWpUHWQ8Hw_'
p20
sS'RK'
p21
S'TDUzN9KOU2'
p22
sS'ptisp'
p23
S'ctc'
p24
sS'p_uin'
p25
S'o0659030105'
p26
sS'pt_serverip'
p27
S'fcb40a8187e485de'
p28
sS'pt4_token'
p29
S'1rGQe86OyJgO7cBbpGB6ma5-kopVyHOKWlHIFBiMVFc_'
p30
sS'ptwebqq'
p31
S'db394a5c001bac8774ab0072e365096320b5c6fe977c7e80868e4430032e0d82'
p32
sS'pt_clientip'
p33
S'4a5e71439c4c8987'
p34
sS'p_skey'
p35
S'YM-TxVDvldIqOm-rtHzN9SN2Ft08nhgR40LGWayHpcA_'
p36
sS'superuin'
p37
S'o0659030105'
p38
sS'ptui_identifier'
p39
S'000D16BE1F53E21110DAE69948EB186F83A5EEE2E2AC047EF402F785'
p40
sS'supertoken'
p41
S'2906369431'
p42
sS'pt_recent_uins'
p43
S'384d8dc32c89899e63b55273e0c0d1e91bb58b8505d261601a7800a61ca09d0d5ac7d5a1a235a53bf909e9eb8ed3757c219c763ad52a2482'
p44
s.