(dp1
S'pt_login_sig'
p2
S'PLYIVpLafraoFWAgHCI7q9DXqALRllWOqzr2haUOhRxVKZ8*CpufBM1LHttjp*rY'
p3
sS'uin'
p4
S'o0659030105'
p5
sS'pt2gguin'
p6
S'o0659030105'
p7
sS'ETK'
p8
S''
sS'ptnick_659030105'
p9
S'e28094526564756e64616e6379e28094e29da4'
p10
sS'skey'
p11
S'@s5wCzvIg5'
p12
sS'u_659030105'
p13
S'@s5wCzvIg5:1480057136:1480057136:e28094526564756e64616e6379e28094e29da4:0'
p14
sS'qrsig'
p15
S'rphXehe7qgtpDHJtDdCb0aqqoZD01XDFTf4z79lNRCNtLJ46LquttRM5JAN36rCJ'
p16
sS'pt_user_id'
p17
S'7567419394377708395'
p18
sS'superkey'
p19
S'bMylby-9BhLd88JF3dZ6XTqv8dZzr-RfG3*43mPyO-g_'
p20
sS'RK'
p21
S'qLU7IdKnG2'
p22
sS'ptisp'
p23
S'ctc'
p24
sS'p_uin'
p25
S'o0659030105'
p26
sS'pt_serverip'
p27
S'47d10a8f996671a2'
p28
sS'pt4_token'
p29
S'LmXj-OIN42*LdhZ2tZlnkZ8gcKElGRaizKjbU*Ft2kU_'
p30
sS'ptwebqq'
p31
S'47b767324ab9e80b586e99a9fb68af2d61967fa31798f935ffe2dca9c579b085'
p32
sS'pt_clientip'
p33
S'7d0b0ad119eaac37'
p34
sS'p_skey'
p35
S'jIY4YEdG0D-kTts1o4SPdfiINW0th2hPpM*71QvMM8M_'
p36
sS'superuin'
p37
S'o0659030105'
p38
sS'ptui_identifier'
p39
S'000E011F42E903506A6446B4D726853BC40386D13F287195E36DE45B63'
p40
sS'supertoken'
p41
S'385010227'
p42
sS'pt_recent_uins'
p43
S'8dc09dffd470525708810296f3c33d2cab619203449276e3b68c236b9c91b22a3408218f7ae08115e578d2aed5a2fd8dd97be21ab9147953'
p44
s.