(dp1
S'pt_login_sig'
p2
S'ZA387ADUsy9FOa-hav7ezl5jZNTJv3FYMmnLnrQhjWbKOiefv-q*GgrPvOke5wjx'
p3
sS'ptisp'
p4
S'ctc'
p5
sS'pt4_token'
p6
S'NR7NEZEDVKqLAaGRU-7oLnJnZudFEZgIOMm7XyrAJRI_'
p7
sS'skey'
p8
S'@biifOf9c0'
p9
sS'RK'
p10
S'qKU7YdKXS2'
p11
sS'ptui_identifier'
p12
S'000D6E1983BB2CC2A8ADBC7C82C2FFF2AA620F287C0559338808EA41'
p13
sS'u_659030105'
p14
S'@biifOf9c0:1471060440:1471060440:e28094526564756e64616e6379e28094:0'
p15
sS'qrsig'
p16
S'Vydl0rRTK1e2Hfn8D1PksEWDRRzT94Yo71fwW-aJTYVg87HW7OAAi*4Lz7Uoehqf'
p17
sS'pt_serverip'
p18
S'bdb60a8f99656a0b'
p19
sS'uin'
p20
S'o0659030105'
p21
sS'p_uin'
p22
S'o0659030105'
p23
sS'supertoken'
p24
S'307016152'
p25
sS'pt2gguin'
p26
S'o0659030105'
p27
sS'ptwebqq'
p28
S'273dd6a68d2509fdec1d6abdeb82b5c944dcb443d8c937574e1fc15385e73a69'
p29
sS'pt_user_id'
p30
S'8674836841311942078'
p31
sS'ETK'
p32
S''
sS'pt_clientip'
p33
S'61f30af0891c614d'
p34
sS'superuin'
p35
S'o0659030105'
p36
sS'p_skey'
p37
S'eudJ3JrUr0bjHPxnmMePR1rdebTxLsskbmhWLxYSM50_'
p38
sS'superkey'
p39
S'fny7oBm7faZOnM99m0CNVGlkXV8OwfxS0PUqLi0OoK0_'
p40
sS'ptnick_659030105'
p41
S'e28094526564756e64616e6379e28094'
p42
s.