(dp1
S'pt_login_sig'
p2
S'YHQyDqQh6HWnhkRYdzPJnb5GJn4K71XOCPM9EpGZP9IWzlKVCMtIyoGH-mZmVlu4'
p3
sS'ptisp'
p4
S'ctc'
p5
sS'pt4_token'
p6
S'mm1DmL1N1sTZpOfG-cWJ-eWUum8cMBCkpcerAHotgBo_'
p7
sS'skey'
p8
S'@Z3D7g1LBV'
p9
sS'RK'
p10
S'qKU7YdKXS2'
p11
sS'ptui_identifier'
p12
S'000DC2EAE5D2D60229B611F13FD78DC74E4870F05B725205FCE1F00F'
p13
sS'u_659030105'
p14
S'@Z3D7g1LBV:1471596590:1471596590:e28094526564756e64616e6379e28094:0'
p15
sS'qrsig'
p16
S'HP3sbUUBv9ZoaQydn9mnU*GWFfgUCSlwxMYF24zANA0OZ6I7XnqbCTDXr4ygV0z-'
p17
sS'pt_serverip'
p18
S'57f80af17164544e'
p19
sS'uin'
p20
S'o0659030105'
p21
sS'p_uin'
p22
S'o0659030105'
p23
sS'supertoken'
p24
S'3487043390'
p25
sS'pt2gguin'
p26
S'o0659030105'
p27
sS'ptwebqq'
p28
S'48ed7db6a9c819356f3f9e96e3d5dff33aeb9bfcdaaffa6f967ef6794a2d4f08'
p29
sS'pt_user_id'
p30
S'8502425161218432009'
p31
sS'ETK'
p32
S''
sS'pt_clientip'
p33
S'e27f0a3172106c27'
p34
sS'superuin'
p35
S'o0659030105'
p36
sS'p_skey'
p37
S'0DKVDAYomBIilQizzIR9ttehliC1a3uzEeYU6Y4y-r4_'
p38
sS'superkey'
p39
S'7cXv0eWjd-vo1UD7HWj*5EnoV3Rkq*K*Ihs-vYJHzGw_'
p40
sS'ptnick_659030105'
p41
S'e28094526564756e64616e6379e28094'
p42
s.