(dp1
Vgrep
p2
V@\u6740\u795e
p3
sVSS
p4
VSS\u52c3\u52c3\u5c31\u662f\u53fc
p5
sVss1
p6
V\u5956\u52b1\u4e00\u4e2a\u52c31
p7
sVss3
p8
V\u5956\u52b1\u4e00\u4e2a\u52c33
p9
sVss2
p10
V\u5956\u52b1\u4e00\u4e2a\u52c32
p11
sV1
V2
sVss
p12
V\u5956\u52b1\u4e00\u4e2a\u52c3
p13
sVR
VBigR\u5c31\u662f\u597d\u7528
p14
sVPF
p15
V\u5df2\u7ecf\u88ab\u8f6f\u7981
p16
sVlearn
p17
V#use# learn
p18
sV\u5e26\u5934\u5927\u54e5
p19
V\u5927\u5bb6\u6700\u670d\u5927\u54e5\uff0c\u6ca1\u6709\u4e4b\u4e00
p20
s.