(dp1
Vgrep
p2
V@\u6740\u795e
p3
sVSS
p4
VSS\u52c3\u52c3\u5c31\u662f\u53fc
p5
sVss1
p6
V\u5956\u52b1\u4e00\u4e2a\u52c31
p7
sVss3
p8
V\u5956\u52b1\u4e00\u4e2a\u52c33
p9
sVss2
p10
V\u5956\u52b1\u4e00\u4e2a\u52c32
p11
sV1
V2
sVss
p12
V\u5956\u52b1\u4e00\u4e2a\u52c3
p13
sVR
VBigR\u5c31\u662f\u597d\u7528
p14
sVPF
p15
V\u5df2\u7ecf\u88ab\u8f6f\u7981
p16
sVlearn
p17
V#use# learn
p18
sV\u5e26\u5934\u5927\u54e5
p19
V\u5927\u5bb6\u6700\u670d\u5927\u54e5\uff0c\u6ca1\u6709\u4e4b\u4e00
p20
s.(dp1
Vgrep
p2
V@\u6740\u795e
p3
sVSS
p4
VSS\u52c3\u52c3\u5c31\u662f\u53fc
p5
sV\u90c1\u91d1\u9999
p6
V\u91d1\u9999\u80f8\u6df1\u85cf\u4e0d\u9732,\u771f\u4e43\u795e\u4eba\u4e5f
p7
sVss1
p8
V\u5956\u52b1\u4e00\u4e2a\u52c31
p9
sVss3
p10
V\u5956\u52b1\u4e00\u4e2a\u52c33
p11
sVss2
p12
V\u5956\u52b1\u4e00\u4e2a\u52c32
p13
sV1
V2
sVss
p14
V\u5956\u52b1\u4e00\u4e2a\u52c3
p15
sVR
VBigR\u5c31\u662f\u597d\u7528
p16
sVPF
p17
V\u5df2\u7ecf\u88ab\u8f6f\u7981
p18
sVlearn
p19
V#use# learn
p20
sV\u5e26\u5934\u5927\u54e5
p21
V\u5927\u5bb6\u6700\u670d\u5927\u54e5\uff0c\u6ca1\u6709\u4e4b\u4e00
p22
s.(dp1
Vgrep
p2
V@\u6740\u795e
p3
sV\u5927R
p4
V\u725b\u903c\u7684\u4e0d\u8981\u4e0d\u8981\u7684
p5
sVSS
p6
VSS\u52c3\u52c3\u5c31\u662f\u53fc
p7
sVss1
p8
V\u5956\u52b1\u4e00\u4e2a\u52c31
p9
sVss3
p10
V\u5956\u52b1\u4e00\u4e2a\u52c33
p11
sVss2
p12
V\u5956\u52b1\u4e00\u4e2a\u52c32
p13
sV1
V2
sVss
p14
V\u5956\u52b1\u4e00\u4e2a\u52c3
p15
sVR
VBigR\u5c31\u662f\u597d\u7528
p16
sVPF
p17
V\u5df2\u7ecf\u88ab\u8f6f\u7981
p18
sVlearn
p19
V#use# learn
p20
sV\u5e26\u5934\u5927\u54e5
p21
V\u5927\u5bb6\u6700\u670d\u5927\u54e5\uff0c\u6ca1\u6709\u4e4b\u4e00
p22
s.(dp1
Vgrep
p2
V@\u6740\u795e
p3
sVSS
p4
VSS\u52c3\u52c3\u5c31\u662f\u53fc
p5
sVss1
p6
V\u5956\u52b1\u4e00\u4e2a\u52c31
p7
sVss3
p8
V\u5956\u52b1\u4e00\u4e2a\u52c33
p9
sVss2
p10
V\u5956\u52b1\u4e00\u4e2a\u52c32
p11
sV1
V2
sVss
p12
V\u5956\u52b1\u4e00\u4e2a\u52c3
p13
sV\u5927\u54e5
p14
V\u5927\u5bb6\u6700\u670d\u5927\u54e5,\u6ca1\u6709\u4e4b\u4e00
p15
sVR
VBigR\u5c31\u662f\u597d\u7528
p16
sVPF
p17
V\u5df2\u7ecf\u88ab\u8f6f\u7981
p18
sVlearn
p19
V#use# learn
p20
sV\u5e26\u5934\u5927\u54e5
p21
V\u5927\u5bb6\u6700\u670d\u5927\u54e5\uff0c\u6ca1\u6709\u4e4b\u4e00
p22
s.(dp1
Vgrep
p2
V@\u6740\u795e
p3
sVSS
p4
VSS\u52c3\u52c3\u5c31\u662f\u53fc
p5
sVss1
p6
V\u5956\u52b1\u4e00\u4e2a\u52c31
p7
sVss3
p8
V\u5956\u52b1\u4e00\u4e2a\u52c33
p9
sVss2
p10
V\u5956\u52b1\u4e00\u4e2a\u52c32
p11
sV1
V2
sVss
p12
V\u5956\u52b1\u4e00\u4e2a\u52c3
p13
sVR
VBigR\u5c31\u662f\u597d\u7528
p14
sVPF
p15
V\u5df2\u7ecf\u88ab\u8f6f\u7981
p16
sVlearn
p17
V#use# learn
p18
sVaaa
p19
Vvvv
p20
sV\u5e26\u5934\u5927\u54e5
p21
V\u5927\u5bb6\u6700\u670d\u5927\u54e5\uff0c\u6ca1\u6709\u4e4b\u4e00
p22
s.(dp1
Vgrep
p2
Vgrep\u5c31\u662f\u597d\u7528
p3
sVSS
p4
VSS\u52c3\u52c3\u5c31\u662f\u53fc
p5
sVss1
p6
V\u5956\u52b1\u4e00\u4e2a\u52c31
p7
sVss3
p8
V\u5956\u52b1\u4e00\u4e2a\u52c33
p9
sVss2
p10
V\u5956\u52b1\u4e00\u4e2a\u52c32
p11
sV1
V2
sVss
p12
V\u5956\u52b1\u4e00\u4e2a\u52c3
p13
sVR
VBigR\u5c31\u662f\u597d\u7528
p14
sVPF
p15
V\u5df2\u7ecf\u88ab\u8f6f\u7981
p16
sVlearn
p17
V#use# learn
p18
sV\u5e26\u5934\u5927\u54e5
p19
V\u5927\u5bb6\u6700\u670d\u5927\u54e5\uff0c\u6ca1\u6709\u4e4b\u4e00
p20
s.(dp1
Vgrep
p2
V@\u6740\u795e
p3
sVSS
p4
VSS\u52c3\u52c3\u5c31\u662f\u53fc
p5
sVss1
p6
V\u5956\u52b1\u4e00\u4e2a\u52c31
p7
sVss3
p8
V\u5956\u52b1\u4e00\u4e2a\u52c33
p9
sVss2
p10
V\u5956\u52b1\u4e00\u4e2a\u52c32
p11
sV1
V2
sVss
p12
V\u5956\u52b1\u4e00\u4e2a\u52c3
p13
sVR
VBigR\u5c31\u662f\u597d\u7528
p14
sVPF
p15
V\u5df2\u7ecf\u88ab\u8f6f\u7981
p16
sVlearn
p17
V#use# learn
p18
sV\u5e26\u5934\u5927\u54e5
p19
V\u5927\u5bb6\u6700\u670d\u5927\u54e5\uff0c\u6ca1\u6709\u4e4b\u4e00
p20
sV\u56fe\u7247
p21
Vhe llo
p22
s.(dp1
Vgrep
p2
V@\u6740\u795e
p3
sVSS
p4
VSS\u52c3\u52c3\u5c31\u662f\u53fc
p5
sVtrtr
p6
V11
p7
sVss1
p8
V\u5956\u52b1\u4e00\u4e2a\u52c31
p9
sVss3
p10
V\u5956\u52b1\u4e00\u4e2a\u52c33
p11
sVss2
p12
V\u5956\u52b1\u4e00\u4e2a\u52c32
p13
sV1
V2
sVss
p14
V\u5956\u52b1\u4e00\u4e2a\u52c3
p15
sVR
VBigR\u5c31\u662f\u597d\u7528
p16
sVPF
p17
V\u5df2\u7ecf\u88ab\u8f6f\u7981
p18
sVlearn
p19
V#use# learn
p20
sV\u5e26\u5934\u5927\u54e5
p21
V\u5927\u5bb6\u6700\u670d\u5927\u54e5\uff0c\u6ca1\u6709\u4e4b\u4e00
p22
s.(dp1
Vgrep
p2
V@\u6740\u795e
p3
sVSS
p4
VSS\u52c3\u52c3\u5c31\u662f\u53fc
p5
sVss1
p6
V\u5956\u52b1\u4e00\u4e2a\u52c31
p7
sVss3
p8
V\u5956\u52b1\u4e00\u4e2a\u52c33
p9
sVss2
p10
V\u5956\u52b1\u4e00\u4e2a\u52c32
p11
sV1
V2
sVss
p12
V\u5956\u52b1\u4e00\u4e2a\u52c3
p13
sVR
VBigR\u5c31\u662f\u597d\u7528
p14
sVPF
p15
V\u5df2\u7ecf\u88ab\u8f6f\u7981
p16
sVlearn
p17
V#use# learn
p18
sV\u5c0f\u98ce\u98ce
p19
V\u53ea\u6709\u88c5\u903c\u624d\u80fd\u8ba9\u5c0f\u98ce\u98ce\u5feb\u4e50
p20
sV\u5e26\u5934\u5927\u54e5
p21
V\u5927\u5bb6\u6700\u670d\u5927\u54e5\uff0c\u6ca1\u6709\u4e4b\u4e00
p22
s.(dp1
Vgrep
p2
V@\u6740\u795e
p3
sVSS
p4
VSS\u52c3\u52c3\u5c31\u662f\u53fc
p5
sVss1
p6
V\u5956\u52b1\u4e00\u4e2a\u52c31
p7
sVss3
p8
V\u5956\u52b1\u4e00\u4e2a\u52c33
p9
sVss2
p10
V\u5956\u52b1\u4e00\u4e2a\u52c32
p11
sV1
V2
sVss
p12
V\u5956\u52b1\u4e00\u4e2a\u52c3
p13
sVR
VBigR\u5c31\u662f\u597d\u7528
p14
sVPF
p15
V\u5df2\u7ecf\u88ab\u8f6f\u7981
p16
sVlearn
p17
V#use# learn
p18
sV\u5c0f\u98ce\u98ce
p19
V\u53ea\u6709\u88c5\u903c\u624d\u80fd\u4f7f\u5c0f\u98ce\u98ce\u5feb\u4e50
p20
sV\u5e26\u5934\u5927\u54e5
p21
V\u5927\u5bb6\u6700\u670d\u5927\u54e5\uff0c\u6ca1\u6709\u4e4b\u4e00
p22
s.